; ModuleID = '15/908.c'
source_filename = "15/908.c"
target datalayout = "e-m:e-p270:32:32-p271:32:32-p272:64:64-i64:64-f80:128-n8:16:32:64-S128"
target triple = "x86_64-pc-linux-gnu"

@.str = private unnamed_addr constant [3 x i8] c"%d\00", align 1

; Function Attrs: noinline nounwind uwtable
define dso_local i32 @main() #0 {
  %1 = alloca i32, align 4
  %2 = alloca [1000 x [1000 x i32]], align 16
  %3 = alloca i32, align 4
  %4 = alloca i32, align 4
  %5 = alloca i32, align 4
  %6 = alloca i32, align 4
  %7 = alloca i32, align 4
  %8 = alloca i32, align 4
  %9 = alloca i32, align 4
  %10 = alloca i32, align 4
  %11 = alloca i32, align 4
  %12 = alloca i32, align 4
  %13 = alloca i32, align 4
  %14 = alloca i32, align 4
  %15 = alloca i32, align 4
  %16 = alloca i32, align 4
  store i32 0, i32* %1, align 4
  store i32 0, i32* %12, align 4
  store i32 0, i32* %13, align 4
  store i32 0, i32* %14, align 4
  store i32 0, i32* %15, align 4
  store i32 0, i32* %16, align 4
  store i32 1, i32* %9, align 4
  store i32 1, i32* %10, align 4
  %17 = call i32 (i8*, ...) @__isoc99_scanf(i8* getelementptr inbounds ([3 x i8], [3 x i8]* @.str, i64 0, i64 0), i32* %5)
  store i32 0, i32* %3, align 4
  br label %18

18:                                               ; preds = %39, %0
  %19 = load i32, i32* %3, align 4
  %20 = load i32, i32* %5, align 4
  %21 = icmp slt i32 %19, %20
  br i1 %21, label %22, label %42

22:                                               ; preds = %18
  store i32 0, i32* %4, align 4
  br label %23

23:                                               ; preds = %35, %22
  %24 = load i32, i32* %4, align 4
  %25 = load i32, i32* %5, align 4
  %26 = icmp slt i32 %24, %25
  br i1 %26, label %27, label %38

27:                                               ; preds = %23
  %28 = load i32, i32* %3, align 4
  %29 = sext i32 %28 to i64
  %30 = getelementptr inbounds [1000 x [1000 x i32]], [1000 x [1000 x i32]]* %2, i64 0, i64 %29
  %31 = load i32, i32* %4, align 4
  %32 = sext i32 %31 to i64
  %33 = getelementptr inbounds [1000 x i32], [1000 x i32]* %30, i64 0, i64 %32
  %34 = call i32 (i8*, ...) @__isoc99_scanf(i8* getelementptr inbounds ([3 x i8], [3 x i8]* @.str, i64 0, i64 0), i32* %33)
  br label %35

35:                                               ; preds = %27
  %36 = load i32, i32* %4, align 4
  %37 = add nsw i32 %36, 1
  store i32 %37, i32* %4, align 4
  br label %23

38:                                               ; preds = %23
  br label %39

39:                                               ; preds = %38
  %40 = load i32, i32* %3, align 4
  %41 = add nsw i32 %40, 1
  store i32 %41, i32* %3, align 4
  br label %18

42:                                               ; preds = %18
  store i32 0, i32* %6, align 4
  br label %43

43:                                               ; preds = %72, %42
  %44 = load i32, i32* %6, align 4
  %45 = load i32, i32* %5, align 4
  %46 = icmp slt i32 %44, %45
  br i1 %46, label %47, label %75

47:                                               ; preds = %43
  store i32 0, i32* %7, align 4
  br label %48

48:                                               ; preds = %68, %47
  %49 = load i32, i32* %7, align 4
  %50 = load i32, i32* %5, align 4
  %51 = icmp slt i32 %49, %50
  br i1 %51, label %52, label %71

52:                                               ; preds = %48
  %53 = load i32, i32* %6, align 4
  %54 = sext i32 %53 to i64
  %55 = getelementptr inbounds [1000 x [1000 x i32]], [1000 x [1000 x i32]]* %2, i64 0, i64 %54
  %56 = load i32, i32* %7, align 4
  %57 = sext i32 %56 to i64
  %58 = getelementptr inbounds [1000 x i32], [1000 x i32]* %55, i64 0, i64 %57
  %59 = load i32, i32* %58, align 4
  %60 = icmp eq i32 %59, 0
  br i1 %60, label %61, label %67

61:                                               ; preds = %52
  %62 = load i32, i32* %9, align 4
  %63 = icmp eq i32 %62, 1
  br i1 %63, label %64, label %67

64:                                               ; preds = %61
  store i32 2, i32* %9, align 4
  %65 = load i32, i32* %7, align 4
  store i32 %65, i32* %12, align 4
  %66 = load i32, i32* %6, align 4
  store i32 %66, i32* %14, align 4
  br label %67

67:                                               ; preds = %64, %61, %52
  br label %68

68:                                               ; preds = %67
  %69 = load i32, i32* %7, align 4
  %70 = add nsw i32 %69, 1
  store i32 %70, i32* %7, align 4
  br label %48

71:                                               ; preds = %48
  br label %72

72:                                               ; preds = %71
  %73 = load i32, i32* %6, align 4
  %74 = add nsw i32 %73, 1
  store i32 %74, i32* %6, align 4
  br label %43

75:                                               ; preds = %43
  %76 = load i32, i32* %5, align 4
  %77 = sub nsw i32 %76, 1
  store i32 %77, i32* %8, align 4
  br label %78

78:                                               ; preds = %107, %75
  %79 = load i32, i32* %8, align 4
  %80 = icmp sge i32 %79, 0
  br i1 %80, label %81, label %110

81:                                               ; preds = %78
  %82 = load i32, i32* %5, align 4
  %83 = sub nsw i32 %82, 1
  store i32 %83, i32* %11, align 4
  br label %84

84:                                               ; preds = %103, %81
  %85 = load i32, i32* %11, align 4
  %86 = icmp sge i32 %85, 0
  br i1 %86, label %87, label %106

87:                                               ; preds = %84
  %88 = load i32, i32* %8, align 4
  %89 = sext i32 %88 to i64
  %90 = getelementptr inbounds [1000 x [1000 x i32]], [1000 x [1000 x i32]]* %2, i64 0, i64 %89
  %91 = load i32, i32* %11, align 4
  %92 = sext i32 %91 to i64
  %93 = getelementptr inbounds [1000 x i32], [1000 x i32]* %90, i64 0, i64 %92
  %94 = load i32, i32* %93, align 4
  %95 = icmp eq i32 %94, 0
  br i1 %95, label %96, label %102

96:                                               ; preds = %87
  %97 = load i32, i32* %10, align 4
  %98 = icmp eq i32 %97, 1
  br i1 %98, label %99, label %102

99:                                               ; preds = %96
  %100 = load i32, i32* %11, align 4
  store i32 %100, i32* %13, align 4
  %101 = load i32, i32* %8, align 4
  store i32 %101, i32* %15, align 4
  store i32 2, i32* %10, align 4
  br label %102

102:                                              ; preds = %99, %96, %87
  br label %103

103:                                              ; preds = %102
  %104 = load i32, i32* %11, align 4
  %105 = add nsw i32 %104, -1
  store i32 %105, i32* %11, align 4
  br label %84

106:                                              ; preds = %84
  br label %107

107:                                              ; preds = %106
  %108 = load i32, i32* %8, align 4
  %109 = add nsw i32 %108, -1
  store i32 %109, i32* %8, align 4
  br label %78

110:                                              ; preds = %78
  %111 = load i32, i32* %13, align 4
  %112 = load i32, i32* %12, align 4
  %113 = sub nsw i32 %111, %112
  %114 = add nsw i32 %113, 1
  %115 = load i32, i32* %15, align 4
  %116 = load i32, i32* %14, align 4
  %117 = sub nsw i32 %115, %116
  %118 = add nsw i32 %117, 1
  %119 = mul nsw i32 %114, %118
  %120 = load i32, i32* %13, align 4
  %121 = load i32, i32* %12, align 4
  %122 = sub nsw i32 %120, %121
  %123 = load i32, i32* %15, align 4
  %124 = add nsw i32 %122, %123
  %125 = load i32, i32* %14, align 4
  %126 = sub nsw i32 %124, %125
  %127 = add nsw i32 %126, 2
  %128 = mul nsw i32 2, %127
  %129 = sub nsw i32 %119, %128
  %130 = add nsw i32 %129, 4
  store i32 %130, i32* %16, align 4
  %131 = load i32, i32* %16, align 4
  %132 = call i32 (i8*, ...) @printf(i8* getelementptr inbounds ([3 x i8], [3 x i8]* @.str, i64 0, i64 0), i32 %131)
  ret i32 0
}

declare dso_local i32 @__isoc99_scanf(i8*, ...) #1

declare dso_local i32 @printf(i8*, ...) #1


!llvm.module.flags = !{!0}
!llvm.ident = !{!1}

!0 = !{i32 1, !"wchar_size", i32 4}
!1 = !{!"clang version 10.0.0-4ubuntu1 "}
